; Function Attrs: null_pointer_is_valid sspstrong uwtable
define internal noundef i32 @dissect_aim_ssi_rightsinfo(ptr noundef %0, ptr noundef %1, ptr noundef %2) #0 {
  %4 = tail call i32 @tvb_reported_length_remaining(ptr noundef %0, i32 noundef 0)
  %5 = icmp sgt i32 %4, 0
  br i1 %5, label %.lr.ph.i, label %dissect_aim_tlv_sequence.exit

.lr.ph.i:                                         ; preds = %3, %.lr.ph.i
  %.07.i = phi i32 [ %6, %.lr.ph.i ], [ 0, %3 ]
  %6 = tail call fastcc i32 @dissect_aim_tlv(ptr noundef %0, ptr noundef %1, i32 noundef %.07.i, ptr noundef %2, ptr noundef nonnull @aim_ssi_rightsinfo_tlvs)
  %7 = tail call i32 @tvb_reported_length_remaining(ptr noundef %0, i32 noundef %6)
  %8 = icmp sgt i32 %7, 0
  br i1 %8, label %.lr.ph.i, label %dissect_aim_tlv_sequence.exit, !llvm.loop !8

dissect_aim_tlv_sequence.exit:                    ; preds = %.lr.ph.i, %3
  %.0.lcssa.i = phi i32 [ 0, %3 ], [ %6, %.lr.ph.i ]
  ret i32 %.0.lcssa.i
}